; Function Attrs: mustprogress uwtable
define void @_ZNK6casadi7Densify8generateERNS_13CodeGeneratorERKSt6vectorIxSaIxEES7_(ptr noundef nonnull align 8 dereferenceable(64) %0, ptr noundef nonnull align 8 dereferenceable(3097) %1, ptr nocapture noundef nonnull readonly align 8 dereferenceable(24) %2, ptr nocapture noundef nonnull readonly align 8 dereferenceable(24) %3) unnamed_addr #3 align 2 personality ptr @__gxx_personality_v0 {
  %5 = alloca %"class.std::__cxx11::basic_string", align 8
  %6 = alloca %"class.std::__cxx11::basic_string", align 8
  %7 = alloca %"class.std::__cxx11::basic_string", align 8
  %8 = getelementptr inbounds i8, ptr %0, i64 32
  %9 = getelementptr inbounds i8, ptr %0, i64 40
  %10 = load ptr, ptr %9, align 8
  %11 = load ptr, ptr %8, align 8
  %.not.i.i.i.not = icmp eq ptr %10, %11
  br i1 %.not.i.i.i.not, label %12, label %_ZNK6casadi6MXNode3depEx.exit

12:                                               ; preds = %4
  tail call void (ptr, ...) @_ZSt24__throw_out_of_range_fmtPKcz(ptr noundef nonnull @.str.10, i64 noundef 0, i64 noundef 0) #17
  unreachable

_ZNK6casadi6MXNode3depEx.exit:                    ; preds = %4
  %13 = load ptr, ptr %2, align 8
  %14 = load i64, ptr %13, align 8
  %15 = tail call noundef nonnull align 8 dereferenceable(8) ptr @_ZNK6casadi2MX8sparsityEv(ptr noundef nonnull align 8 dereferenceable(8) %11)
  %16 = tail call noundef i64 @_ZNK6casadi8Sparsity3nnzEv(ptr noundef nonnull align 8 dereferenceable(8) %15)
  call void @_ZNK6casadi13CodeGenerator4workB5cxx11Exx(ptr dead_on_unwind nonnull writable sret(%"class.std::__cxx11::basic_string") align 8 %6, ptr noundef nonnull align 8 dereferenceable(3097) %1, i64 noundef %14, i64 noundef %16)
  %17 = load ptr, ptr %9, align 8
  %18 = load ptr, ptr %8, align 8
  %.not.i.i.i12.not = icmp eq ptr %17, %18
  br i1 %.not.i.i.i12.not, label %19, label %_ZNK6casadi6MXNode3depEx.exit13

19:                                               ; preds = %_ZNK6casadi6MXNode3depEx.exit
  invoke void (ptr, ...) @_ZSt24__throw_out_of_range_fmtPKcz(ptr noundef nonnull @.str.10, i64 noundef 0, i64 noundef 0) #17
          to label %.noexc unwind label %35

.noexc:                                           ; preds = %19
  unreachable

_ZNK6casadi6MXNode3depEx.exit13:                  ; preds = %_ZNK6casadi6MXNode3depEx.exit
  %20 = invoke noundef nonnull align 8 dereferenceable(8) ptr @_ZNK6casadi2MX8sparsityEv(ptr noundef nonnull align 8 dereferenceable(8) %18)
          to label %21 unwind label %35

21:                                               ; preds = %_ZNK6casadi6MXNode3depEx.exit13
  %22 = load ptr, ptr %3, align 8
  %23 = load i64, ptr %22, align 8
  %24 = load ptr, ptr %0, align 8
  %25 = getelementptr inbounds i8, ptr %24, i64 352
  %26 = load ptr, ptr %25, align 8
  %27 = invoke noundef nonnull align 8 dereferenceable(8) ptr %26(ptr noundef nonnull align 8 dereferenceable(64) %0, i64 noundef 0)
          to label %.noexc14 unwind label %35

.noexc14:                                         ; preds = %21
  %28 = invoke noundef i64 @_ZNK6casadi8Sparsity3nnzEv(ptr noundef nonnull align 8 dereferenceable(8) %27)
          to label %_ZNK6casadi6MXNode3nnzEx.exit unwind label %35

_ZNK6casadi6MXNode3nnzEx.exit:                    ; preds = %.noexc14
  invoke void @_ZNK6casadi13CodeGenerator4workB5cxx11Exx(ptr dead_on_unwind nonnull writable sret(%"class.std::__cxx11::basic_string") align 8 %7, ptr noundef nonnull align 8 dereferenceable(3097) %1, i64 noundef %23, i64 noundef %28)
          to label %29 unwind label %35

29:                                               ; preds = %_ZNK6casadi6MXNode3nnzEx.exit
  invoke void @_ZN6casadi13CodeGenerator7densifyERKNSt7__cxx1112basic_stringIcSt11char_traitsIcESaIcEEERKNS_8SparsityES8_b(ptr dead_on_unwind nonnull writable sret(%"class.std::__cxx11::basic_string") align 8 %5, ptr noundef nonnull align 8 dereferenceable(3097) %1, ptr noundef nonnull align 8 dereferenceable(32) %6, ptr noundef nonnull align 8 dereferenceable(8) %20, ptr noundef nonnull align 8 dereferenceable(32) %7, i1 noundef zeroext false)
          to label %30 unwind label %37

30:                                               ; preds = %29
  %31 = invoke noundef nonnull align 8 dereferenceable(3097) ptr @_ZN6casadi13CodeGeneratorlsERKNSt7__cxx1112basic_stringIcSt11char_traitsIcESaIcEEE(ptr noundef nonnull align 8 dereferenceable(3097) %1, ptr noundef nonnull align 8 dereferenceable(32) %5)
          to label %32 unwind label %39

32:                                               ; preds = %30
  %33 = invoke noundef nonnull align 8 dereferenceable(3097) ptr @_ZN6casadi13CodeGeneratorlsIPKcEERS0_T_(ptr noundef nonnull align 8 dereferenceable(3097) %31, ptr noundef nonnull @.str.4)
          to label %34 unwind label %39

34:                                               ; preds = %32
  call void @_ZNSt7__cxx1112basic_stringIcSt11char_traitsIcESaIcEED1Ev(ptr noundef nonnull align 8 dereferenceable(32) %5) #16
  call void @_ZNSt7__cxx1112basic_stringIcSt11char_traitsIcESaIcEED1Ev(ptr noundef nonnull align 8 dereferenceable(32) %7) #16
  call void @_ZNSt7__cxx1112basic_stringIcSt11char_traitsIcESaIcEED1Ev(ptr noundef nonnull align 8 dereferenceable(32) %6) #16
  ret void

35:                                               ; preds = %.noexc14, %21, %19, %_ZNK6casadi6MXNode3nnzEx.exit, %_ZNK6casadi6MXNode3depEx.exit13
  %36 = landingpad { ptr, i32 }
          cleanup
  br label %42

37:                                               ; preds = %29
  %38 = landingpad { ptr, i32 }
          cleanup
  br label %41

39:                                               ; preds = %32, %30
  %40 = landingpad { ptr, i32 }
          cleanup
  call void @_ZNSt7__cxx1112basic_stringIcSt11char_traitsIcESaIcEED1Ev(ptr noundef nonnull align 8 dereferenceable(32) %5) #16
  br label %41

41:                                               ; preds = %39, %37
  %.pn = phi { ptr, i32 } [ %40, %39 ], [ %38, %37 ]
  call void @_ZNSt7__cxx1112basic_stringIcSt11char_traitsIcESaIcEED1Ev(ptr noundef nonnull align 8 dereferenceable(32) %7) #16
  br label %42

42:                                               ; preds = %41, %35
  %.pn.pn = phi { ptr, i32 } [ %.pn, %41 ], [ %36, %35 ]
  call void @_ZNSt7__cxx1112basic_stringIcSt11char_traitsIcESaIcEED1Ev(ptr noundef nonnull align 8 dereferenceable(32) %6) #16
  resume { ptr, i32 } %.pn.pn
}